Certificate:
    Data:
        Version: 3 (0x2)
        Serial Number: 1 (0x1)
    Signature Algorithm: sha256WithRSAEncryption
        Issuer: CN=etcd-signer@1537529396
        Validity
            Not Before: Sep 21 11:32:12 2018 GMT
            Not After : Sep 20 11:32:12 2023 GMT
        Subject: CN=ip-172-31-28-203.eu-central-1.compute.internal
        Subject Public Key Info:
            Public Key Algorithm: rsaEncryption
                Public-Key: (2048 bit)
                Modulus:
                    00:a5:11:86:d4:bc:a3:18:4d:ce:0e:12:09:96:12:
                    d4:77:a3:49:74:e0:2d:0b:a2:cb:45:ff:ab:3b:7d:
                    ac:15:74:1f:3a:97:b3:c2:10:86:cb:cb:17:99:ec:
                    d1:cd:a8:28:f3:38:8f:d0:3c:26:fd:d0:9b:7d:35:
                    73:c0:d1:05:ab:54:55:ee:60:6f:ba:65:1c:49:72:
                    e6:3f:e4:b4:6b:a2:1a:c9:06:5a:a3:1f:a4:64:ff:
                    ef:fa:fc:5f:ff:ae:a0:bd:6d:5b:49:7e:79:e5:fb:
                    cc:61:6c:89:59:91:fa:af:64:0c:8c:cc:94:14:b7:
                    94:3a:53:f4:28:17:24:3b:34:4a:43:28:ea:f3:bf:
                    97:8f:4b:27:54:e4:bb:0d:cd:25:13:d5:4d:df:b5:
                    be:10:3e:c7:9a:af:6f:08:28:d1:83:b6:13:e0:c5:
                    87:b2:82:fc:74:e4:c3:aa:2f:fd:ce:18:f5:8a:a3:
                    7d:79:03:72:7c:86:cd:75:71:09:e0:b3:dd:ca:a6:
                    fc:1a:d7:82:a3:78:e7:71:a7:0f:be:e5:34:1e:06:
                    b0:94:23:8a:b9:94:f9:8a:15:f0:2e:56:7a:df:f4:
                    c8:8b:1d:1d:42:06:f5:bc:e1:bd:eb:09:c8:28:d6:
                    2a:89:07:86:38:47:75:af:32:86:01:c5:51:3a:06:
                    fa:1d
                Exponent: 65537 (0x10001)
        X509v3 extensions:
            X509v3 Authority Key Identifier: 
                keyid:71:28:58:BB:00:FD:1E:6E:BF:56:B9:3B:EE:7F:6B:17:F0:DC:D0:D0
                DirName:/CN=etcd-signer@1537529396
                serial:B4:52:5D:DE:F5:3F:03:9F

            X509v3 Basic Constraints: critical
                CA:FALSE
            X509v3 Extended Key Usage: 
                TLS Web Server Authentication
            X509v3 Key Usage: 
                Digital Signature, Key Encipherment
            X509v3 Subject Key Identifier: 
                1D:BF:A6:72:00:85:0D:C9:22:7F:A2:6C:4A:A3:97:C3:BA:FA:66:DF
            X509v3 Subject Alternative Name: 
                IP Address:172.31.28.203, DNS:ip-172-31-28-203.eu-central-1.compute.internal
    Signature Algorithm: sha256WithRSAEncryption
         78:b5:c7:d2:08:fa:b9:01:80:9a:d1:e4:d9:ae:77:33:80:7e:
         d8:9b:3b:93:a0:50:46:20:bb:ae:5c:76:e4:f2:59:16:68:40:
         02:21:3f:44:ec:7b:7a:59:06:6a:8a:0c:18:ea:c9:f7:af:c9:
         af:ce:86:b0:d4:4d:ac:eb:ac:81:68:a9:0a:98:1f:8e:8e:7f:
         16:f5:e8:9b:fe:df:7d:da:fd:b0:42:90:3a:16:00:b3:77:90:
         34:06:53:7e:19:ca:92:e6:96:f3:71:05:1c:df:2a:4a:24:66:
         e5:be:70:80:ac:96:66:aa:89:5e:b7:d6:a5:80:f6:34:6c:94:
         23:fb:0d:d8:01:58:6d:7f:a7:8b:84:4e:7a:c7:a8:a8:c4:93:
         e4:71:88:e2:6f:c2:d0:a5:d8:20:06:32:60:c8:5c:1d:b7:0f:
         f1:be:d6:ed:0a:00:6f:a5:4f:6f:09:8c:68:c8:8d:a5:8e:41:
         14:93:b5:25:a8:12:ac:5b:f7:23:d5:24:68:b3:24:44:82:01:
         17:93:04:ec:09:a4:2a:34:fe:3a:eb:da:52:ca:be:ec:3b:6d:
         df:71:ca:67:cf:ad:04:18:42:96:3f:b5:a5:b7:cc:84:50:ef:
         11:ef:40:22:57:c3:90:eb:27:d4:fc:b3:c6:05:12:e6:3d:0d:
         1c:9d:9f:c0:85:5d:5c:79:7d:70:2b:1d:c2:96:cf:db:df:3c:
         45:d5:c7:4e:6c:a3:45:d5:f2:78:b6:11:1c:9a:a3:81:06:25:
         13:16:60:19:e2:28:71:a4:f4:2e:db:03:24:aa:60:93:50:3a:
         88:fe:4b:dc:1a:2b:21:74:f8:fa:7a:db:94:3a:03:c5:2e:9d:
         cb:09:c2:3c:3d:19:a6:43:9e:1e:f6:43:9d:83:62:d2:11:ec:
         bc:c9:a6:f0:8e:14:c2:42:da:04:86:bd:b8:7d:8a:00:ff:60:
         9c:10:75:02:46:23:32:bf:b4:3d:ec:5f:92:c6:5c:23:58:0d:
         20:98:67:ba:cc:7a:59:31:1c:88:8d:b3:35:d7:0b:d1:2a:ba:
         0f:34:23:62:98:ae:38:06:ed:4f:e8:68:dd:39:68:25:a3:c5:
         30:65:a1:dd:59:53:38:75:a5:a9:1d:8e:28:ad:df:42:01:c9:
         3e:14:de:c3:31:3b:86:cf:fa:07:7f:2b:23:33:90:c4:8f:2d:
         6b:6c:80:c0:b4:bc:8c:7a:9d:27:ce:8d:90:11:3b:c9:4b:77:
         7e:36:6b:14:95:87:f9:28:fc:31:27:f6:2d:d7:70:6d:5a:79:
         c6:7d:fe:d6:3e:90:8c:83:1c:e2:88:0c:15:cd:ab:4d:66:da:
         48:79:a4:c4:20:41:f7:64
-----BEGIN CERTIFICATE-----
MIIEvDCCAqSgAwIBAgIBATANBgkqhkiG9w0BAQsFADAhMR8wHQYDVQQDDBZldGNk
LXNpZ25lckAxNTM3NTI5Mzk2MB4XDTE4MDkyMTExMzIxMloXDTIzMDkyMDExMzIx
MlowOTE3MDUGA1UEAwwuaXAtMTcyLTMxLTI4LTIwMy5ldS1jZW50cmFsLTEuY29t
cHV0ZS5pbnRlcm5hbDCCASIwDQYJKoZIhvcNAQEBBQADggEPADCCAQoCggEBAKUR
htS8oxhNzg4SCZYS1HejSXTgLQuiy0X/qzt9rBV0HzqXs8IQhsvLF5ns0c2oKPM4
j9A8Jv3Qm301c8DRBatUVe5gb7plHEly5j/ktGuiGskGWqMfpGT/7/r8X/+uoL1t
W0l+eeX7zGFsiVmR+q9kDIzMlBS3lDpT9CgXJDs0SkMo6vO/l49LJ1Tkuw3NJRPV
Td+1vhA+x5qvbwgo0YO2E+DFh7KC/HTkw6ov/c4Y9YqjfXkDcnyGzXVxCeCz3cqm
/BrXgqN453GnD77lNB4GsJQjirmU+YoV8C5Wet/0yIsdHUIG9bzhvesJyCjWKokH
hjhHda8yhgHFUToG+h0CAwEAAaOB5jCB4zBRBgNVHSMESjBIgBRxKFi7AP0ebr9W
uTvuf2sX8NzQ0KElpCMwITEfMB0GA1UEAwwWZXRjZC1zaWduZXJAMTUzNzUyOTM5
NoIJALRSXd71PwOfMAwGA1UdEwEB/wQCMAAwEwYDVR0lBAwwCgYIKwYBBQUHAwEw
CwYDVR0PBAQDAgWgMB0GA1UdDgQWBBQdv6ZyAIUNySJ/omxKo5fDuvpm3zA/BgNV
HREEODA2hwSsHxzLgi5pcC0xNzItMzEtMjgtMjAzLmV1LWNlbnRyYWwtMS5jb21w
dXRlLmludGVybmFsMA0GCSqGSIb3DQEBCwUAA4ICAQB4tcfSCPq5AYCa0eTZrncz
gH7YmzuToFBGILuuXHbk8lkWaEACIT9E7Ht6WQZqigwY6sn3r8mvzoaw1E2s66yB
aKkKmB+Ojn8W9eib/t992v2wQpA6FgCzd5A0BlN+GcqS5pbzcQUc3ypKJGblvnCA
rJZmqolet9algPY0bJQj+w3YAVhtf6eLhE56x6ioxJPkcYjib8LQpdggBjJgyFwd
tw/xvtbtCgBvpU9vCYxoyI2ljkEUk7UlqBKsW/cj1SRosyREggEXkwTsCaQqNP46
69pSyr7sO23fccpnz60EGEKWP7Wlt8yEUO8R70AiV8OQ6yfU/LPGBRLmPQ0cnZ/A
hV1ceX1wKx3Cls/b3zxF1cdObKNF1fJ4thEcmqOBBiUTFmAZ4ihxpPQu2wMkqmCT
UDqI/kvcGishdPj6etuUOgPFLp3LCcI8PRmmQ54e9kOdg2LSEey8yabwjhTCQtoE
hr24fYoA/2CcEHUCRiMyv7Q97F+SxlwjWA0gmGe6zHpZMRyIjbM11wvRKroPNCNi
mK44Bu1P6GjdOWglo8UwZaHdWVM4daWpHY4ord9CAck+FN7DMTuGz/oHfysjM5DE
jy1rbIDAtLyMep0nzo2QETvJS3d+NmsUlYf5KPwxJ/Yt13BtWnnGff7WPpCMgxzi
iAwVzatNZtpIeaTEIEH3ZA==
-----END CERTIFICATE-----
