Certificate:
    Data:
        Version: 3 (0x2)
        Serial Number: 3 (0x3)
    Signature Algorithm: sha256WithRSAEncryption
        Issuer: CN=etcd-signer@1537529396
        Validity
            Not Before: Sep 21 11:32:23 2018 GMT
            Not After : Sep 20 11:32:23 2023 GMT
        Subject: CN=ip-172-31-28-203.eu-central-1.compute.internal
        Subject Public Key Info:
            Public Key Algorithm: rsaEncryption
                Public-Key: (2048 bit)
                Modulus:
                    00:d9:90:07:81:2e:0e:93:22:d0:17:e7:e9:31:ff:
                    be:14:b8:17:53:59:e0:f5:f0:b3:b4:d4:85:e0:4a:
                    05:6b:1a:c5:92:6e:4a:1b:99:fc:d4:09:a0:86:6f:
                    57:28:14:2e:64:f2:19:b5:12:54:5a:3b:da:c8:83:
                    54:92:e0:63:3e:a6:44:8c:b1:6e:bd:b1:96:35:aa:
                    d1:86:15:44:2a:60:73:dd:cc:c5:fa:cc:d5:0d:5a:
                    8f:f9:08:aa:bd:90:b7:c5:3f:0c:86:40:31:90:56:
                    47:02:58:cd:a5:6f:19:6b:84:34:f2:5f:bf:b9:42:
                    3d:b5:6a:4e:df:16:14:af:f3:47:bd:80:7d:62:0b:
                    f1:29:90:8d:56:b9:79:b8:f0:26:b6:d1:2b:24:56:
                    f6:58:a0:f2:8f:2e:b6:ae:8d:a1:de:cc:34:da:fe:
                    ae:9b:54:3c:4d:d7:3e:57:96:23:f4:00:05:6d:c8:
                    b2:b4:50:9e:5e:53:90:2f:93:57:4b:6c:16:27:a9:
                    a7:33:0a:6e:d6:3d:64:1e:44:73:3b:3d:6c:5d:a0:
                    c0:7e:ba:57:b5:f3:c5:84:ac:f7:3f:de:b4:6b:ac:
                    e4:7f:99:58:03:da:77:bb:88:7b:54:5a:12:49:6b:
                    be:9d:3b:aa:a7:69:ac:3f:ac:d0:a2:de:1f:dc:45:
                    c0:65
                Exponent: 65537 (0x10001)
        X509v3 extensions:
            X509v3 Authority Key Identifier: 
                keyid:71:28:58:BB:00:FD:1E:6E:BF:56:B9:3B:EE:7F:6B:17:F0:DC:D0:D0
                DirName:/CN=etcd-signer@1537529396
                serial:B4:52:5D:DE:F5:3F:03:9F

            X509v3 Basic Constraints: critical
                CA:FALSE
            X509v3 Extended Key Usage: 
                TLS Web Client Authentication
            X509v3 Key Usage: 
                Digital Signature, Key Encipherment
            X509v3 Subject Key Identifier: 
                25:87:1A:36:A8:52:D8:0E:BA:5C:FB:D4:0F:4E:52:36:29:5F:7B:47
            X509v3 Subject Alternative Name: 
                IP Address:172.31.28.203, DNS:ip-172-31-28-203.eu-central-1.compute.internal
    Signature Algorithm: sha256WithRSAEncryption
         c7:84:76:8d:bf:2e:2d:91:92:ed:a5:9c:94:34:ca:79:33:1d:
         71:f0:4d:18:ef:17:6e:ef:0e:f4:7e:e5:8d:d6:71:29:60:cc:
         ef:63:cf:1a:80:dc:3f:40:fc:dd:b7:31:be:29:e5:c6:8b:0b:
         f7:d4:3c:83:93:64:83:8f:1c:b9:34:16:87:c6:2c:0b:b3:60:
         97:bd:d4:5d:15:77:28:69:9b:38:5f:c4:1e:b4:46:02:9f:d1:
         65:2b:bf:06:0e:9e:c9:3f:f6:bf:0d:f4:66:ee:a5:68:f1:43:
         26:1d:e6:39:7d:6b:5b:b1:4f:63:18:62:57:03:1c:93:23:1a:
         af:84:ce:78:64:2c:a7:5c:db:80:76:5c:6a:40:2f:2c:56:a9:
         a5:58:30:b0:09:87:ad:06:9a:97:f7:52:5e:7b:c0:8a:fe:03:
         33:05:10:f1:63:c6:a7:1b:6c:30:11:94:3c:1a:5d:7f:67:6d:
         e3:73:e4:3d:a8:57:0a:be:7b:7c:7d:83:a0:0e:a1:f6:60:32:
         1f:48:46:8f:5f:04:9e:ee:ef:61:54:f8:a0:ea:40:8f:de:68:
         b6:b8:d8:0b:48:f0:9a:16:8a:84:5d:06:74:c8:cf:55:c8:44:
         5d:54:55:81:f2:3a:63:de:e7:28:4a:d5:47:02:39:0a:44:b3:
         f1:44:7e:46:8a:a8:d9:13:87:c9:2b:a3:e5:42:df:1d:ce:09:
         10:80:e2:31:1e:f0:43:36:c8:e9:a9:77:b5:80:6b:a3:53:b8:
         71:56:0e:17:a6:43:3e:bf:fb:58:08:34:9c:58:41:72:5a:16:
         88:45:17:12:85:1a:57:a0:78:02:a3:8c:4d:d5:03:16:ed:b4:
         52:ad:fe:24:10:ee:e8:a1:af:1d:27:ef:2a:f9:16:f9:7a:52:
         b1:10:ec:61:76:51:fb:f6:67:5a:d7:56:b5:ec:88:7d:f0:96:
         01:ab:e2:14:6e:40:8c:12:e2:5f:61:5a:99:64:64:ce:84:85:
         04:bc:ca:7a:43:76:65:76:43:9d:fb:f9:e0:44:4b:c4:6c:2a:
         cc:0b:f1:b7:5d:5c:97:c6:4b:5e:88:e6:f8:17:37:1d:b1:10:
         4d:a1:05:a1:63:d3:01:6a:98:f3:3d:29:0f:0c:b5:5f:61:2c:
         f3:28:73:a0:33:f1:8c:38:a5:88:74:ee:bd:c1:08:9d:c6:3a:
         4f:d7:b5:63:00:34:9c:eb:8e:c1:ea:a5:af:1a:56:ca:38:9d:
         13:1d:1d:47:14:9a:7c:06:9e:96:18:e9:94:06:3c:75:4a:35:
         94:c2:37:e5:ef:c1:08:3a:c9:a1:91:91:71:d6:56:04:e2:d2:
         b0:87:b4:28:42:15:5c:66
-----BEGIN CERTIFICATE-----
MIIEvDCCAqSgAwIBAgIBAzANBgkqhkiG9w0BAQsFADAhMR8wHQYDVQQDDBZldGNk
LXNpZ25lckAxNTM3NTI5Mzk2MB4XDTE4MDkyMTExMzIyM1oXDTIzMDkyMDExMzIy
M1owOTE3MDUGA1UEAwwuaXAtMTcyLTMxLTI4LTIwMy5ldS1jZW50cmFsLTEuY29t
cHV0ZS5pbnRlcm5hbDCCASIwDQYJKoZIhvcNAQEBBQADggEPADCCAQoCggEBANmQ
B4EuDpMi0Bfn6TH/vhS4F1NZ4PXws7TUheBKBWsaxZJuShuZ/NQJoIZvVygULmTy
GbUSVFo72siDVJLgYz6mRIyxbr2xljWq0YYVRCpgc93MxfrM1Q1aj/kIqr2Qt8U/
DIZAMZBWRwJYzaVvGWuENPJfv7lCPbVqTt8WFK/zR72AfWIL8SmQjVa5ebjwJrbR
KyRW9lig8o8utq6Nod7MNNr+rptUPE3XPleWI/QABW3IsrRQnl5TkC+TV0tsFiep
pzMKbtY9ZB5Eczs9bF2gwH66V7XzxYSs9z/etGus5H+ZWAPad7uIe1RaEklrvp07
qqdprD+s0KLeH9xFwGUCAwEAAaOB5jCB4zBRBgNVHSMESjBIgBRxKFi7AP0ebr9W
uTvuf2sX8NzQ0KElpCMwITEfMB0GA1UEAwwWZXRjZC1zaWduZXJAMTUzNzUyOTM5
NoIJALRSXd71PwOfMAwGA1UdEwEB/wQCMAAwEwYDVR0lBAwwCgYIKwYBBQUHAwIw
CwYDVR0PBAQDAgWgMB0GA1UdDgQWBBQlhxo2qFLYDrpc+9QPTlI2KV97RzA/BgNV
HREEODA2hwSsHxzLgi5pcC0xNzItMzEtMjgtMjAzLmV1LWNlbnRyYWwtMS5jb21w
dXRlLmludGVybmFsMA0GCSqGSIb3DQEBCwUAA4ICAQDHhHaNvy4tkZLtpZyUNMp5
Mx1x8E0Y7xdu7w70fuWN1nEpYMzvY88agNw/QPzdtzG+KeXGiwv31DyDk2SDjxy5
NBaHxiwLs2CXvdRdFXcoaZs4X8QetEYCn9FlK78GDp7JP/a/DfRm7qVo8UMmHeY5
fWtbsU9jGGJXAxyTIxqvhM54ZCynXNuAdlxqQC8sVqmlWDCwCYetBpqX91Jee8CK
/gMzBRDxY8anG2wwEZQ8Gl1/Z23jc+Q9qFcKvnt8fYOgDqH2YDIfSEaPXwSe7u9h
VPig6kCP3mi2uNgLSPCaFoqEXQZ0yM9VyERdVFWB8jpj3ucoStVHAjkKRLPxRH5G
iqjZE4fJK6PlQt8dzgkQgOIxHvBDNsjpqXe1gGujU7hxVg4XpkM+v/tYCDScWEFy
WhaIRRcShRpXoHgCo4xN1QMW7bRSrf4kEO7ooa8dJ+8q+Rb5elKxEOxhdlH79mda
11a17Ih98JYBq+IUbkCMEuJfYVqZZGTOhIUEvMp6Q3ZldkOd+/ngREvEbCrMC/G3
XVyXxkteiOb4FzcdsRBNoQWhY9MBapjzPSkPDLVfYSzzKHOgM/GMOKWIdO69wQid
xjpP17VjADSc647B6qWvGlbKOJ0THR1HFJp8Bp6WGOmUBjx1SjWUwjfl78EIOsmh
kZFx1lYE4tKwh7QoQhVcZg==
-----END CERTIFICATE-----
