Certificate:
    Data:
        Version: 3 (0x2)
        Serial Number: 2 (0x2)
    Signature Algorithm: sha256WithRSAEncryption
        Issuer: CN=etcd-signer@1537529396
        Validity
            Not Before: Sep 21 11:32:13 2018 GMT
            Not After : Sep 20 11:32:13 2023 GMT
        Subject: CN=ip-172-31-28-203.eu-central-1.compute.internal
        Subject Public Key Info:
            Public Key Algorithm: rsaEncryption
                Public-Key: (2048 bit)
                Modulus:
                    00:9d:75:bd:57:40:5c:8f:77:f3:8f:51:42:29:88:
                    bc:b2:92:71:ab:d5:f9:a7:17:7d:62:6e:81:73:b7:
                    85:17:d0:72:b5:3b:3b:e6:f8:41:5c:13:cf:51:1f:
                    63:3f:6c:51:82:ef:b0:b1:40:96:17:d4:70:e4:b2:
                    2b:4e:c2:9c:5a:30:86:1b:4c:18:03:50:f8:bd:a7:
                    4c:25:d9:87:ea:50:3b:7c:30:cb:6e:eb:8c:25:1e:
                    b3:b8:21:25:22:48:79:b4:5c:20:7a:26:b3:8c:0c:
                    65:cc:42:27:f5:b0:19:4f:d6:a7:49:e4:69:71:16:
                    ce:ce:ef:62:45:f0:0d:a7:a0:07:90:2a:e3:d5:b8:
                    65:59:26:1a:c0:0b:5f:7a:39:21:c5:95:00:83:49:
                    54:b5:dd:cc:c9:9f:34:1b:d0:db:0a:60:00:b6:50:
                    76:f8:e0:ad:1d:44:eb:7e:0a:5d:1f:5e:aa:d1:b6:
                    71:ad:38:f1:c1:18:b1:1d:18:43:69:82:44:c1:5f:
                    db:99:f7:f2:2d:00:7d:3d:5a:68:35:5c:15:5b:7b:
                    90:36:99:37:a8:cc:39:dd:ac:aa:a6:4d:cc:6a:39:
                    db:2a:7d:91:3d:09:44:22:5d:b5:3b:17:db:19:09:
                    2f:62:fa:49:52:ec:1b:6a:a7:c4:56:a0:c1:27:5b:
                    1e:e1
                Exponent: 65537 (0x10001)
        X509v3 extensions:
            X509v3 Authority Key Identifier: 
                keyid:71:28:58:BB:00:FD:1E:6E:BF:56:B9:3B:EE:7F:6B:17:F0:DC:D0:D0
                DirName:/CN=etcd-signer@1537529396
                serial:B4:52:5D:DE:F5:3F:03:9F

            X509v3 Basic Constraints: critical
                CA:FALSE
            X509v3 Extended Key Usage: 
                TLS Web Client Authentication, TLS Web Server Authentication
            X509v3 Key Usage: 
                Digital Signature, Key Encipherment
            X509v3 Subject Key Identifier: 
                8A:3B:30:18:03:0E:35:D0:2A:83:71:4D:50:C5:DF:E7:4A:86:FB:42
            X509v3 Subject Alternative Name: 
                IP Address:172.31.28.203, DNS:ip-172-31-28-203.eu-central-1.compute.internal
    Signature Algorithm: sha256WithRSAEncryption
         95:00:cc:db:ad:4c:78:87:3b:4a:8d:06:f0:e1:a1:cc:78:96:
         75:32:ae:4a:8b:c5:ff:7d:5f:48:5b:b9:f1:c2:5d:9c:83:01:
         dc:40:87:71:74:c4:14:b2:bb:3c:a0:47:c9:78:37:02:44:17:
         a5:b4:ff:c7:e2:0b:03:35:fd:2c:88:a5:ac:f1:89:a7:5a:98:
         b0:2d:ee:ad:7a:c0:cb:c4:e8:11:df:36:1e:b3:0e:af:53:ed:
         fc:99:67:53:df:57:55:b2:5d:8c:d1:35:bd:2d:2d:90:e8:15:
         26:75:3b:c9:d9:7c:69:54:fc:c1:ad:45:ef:6d:63:80:94:bb:
         26:5c:bf:6f:f6:0b:bf:6b:1d:33:a9:aa:7b:29:cf:11:0f:75:
         a7:73:e9:99:02:d2:22:a4:c6:7c:50:39:dc:77:c0:2d:ae:3c:
         02:24:20:02:bd:9b:87:20:29:34:d8:8a:7e:93:0c:7e:4b:5f:
         3a:17:e7:8d:66:af:43:eb:01:be:aa:f3:f5:5d:02:60:22:c3:
         5f:2d:06:0f:59:c8:5a:72:74:8c:1a:78:89:20:a5:ae:fa:ad:
         b8:9b:0b:ac:e4:d8:5c:d1:61:57:c6:71:ad:4a:10:86:1b:56:
         75:c5:70:bd:fd:31:15:f3:92:53:b9:40:98:db:4a:67:46:08:
         20:59:84:9c:c4:74:25:ef:96:b6:b9:3b:fd:95:58:6c:ca:40:
         c5:cd:6e:7c:03:9d:cd:4a:fb:00:3b:84:c5:cc:8c:77:56:0d:
         34:c8:eb:7d:4e:e1:fa:15:89:49:32:ac:c4:79:78:5a:74:37:
         80:f1:29:a0:b1:86:f2:16:8d:ee:99:7b:07:30:37:b3:6c:7d:
         5a:e7:e2:46:a8:cf:43:4c:65:46:84:1d:42:c9:93:37:b7:7a:
         f4:45:f3:41:a1:03:fd:69:6f:29:fc:21:b1:3f:10:08:4c:35:
         00:6e:06:8d:2a:5d:ab:a6:00:cc:15:fc:1e:76:88:c0:44:19:
         d1:cb:82:4f:0b:9a:a9:b7:5f:65:c8:41:5f:18:44:a6:7a:a9:
         35:5f:4a:a4:d8:81:66:cd:ac:34:d1:9a:b0:89:b3:6b:d1:e9:
         82:50:9e:36:88:97:42:c5:e0:4b:78:43:4f:b6:77:2d:30:b2:
         1d:4c:83:ae:0d:e8:59:12:ac:a2:f3:18:ed:aa:91:27:87:66:
         01:d5:ff:e5:6c:27:b6:25:3c:b8:34:6a:ba:eb:ce:11:63:67:
         01:3b:2c:52:12:79:ae:11:6f:f9:b8:d0:c6:0e:fc:4c:3c:72:
         03:93:ba:b2:ac:3d:91:60:b6:4d:e8:66:e4:9e:61:42:d5:70:
         69:24:ac:91:98:33:61:63
-----BEGIN CERTIFICATE-----
MIIExjCCAq6gAwIBAgIBAjANBgkqhkiG9w0BAQsFADAhMR8wHQYDVQQDDBZldGNk
LXNpZ25lckAxNTM3NTI5Mzk2MB4XDTE4MDkyMTExMzIxM1oXDTIzMDkyMDExMzIx
M1owOTE3MDUGA1UEAwwuaXAtMTcyLTMxLTI4LTIwMy5ldS1jZW50cmFsLTEuY29t
cHV0ZS5pbnRlcm5hbDCCASIwDQYJKoZIhvcNAQEBBQADggEPADCCAQoCggEBAJ11
vVdAXI93849RQimIvLKScavV+acXfWJugXO3hRfQcrU7O+b4QVwTz1EfYz9sUYLv
sLFAlhfUcOSyK07CnFowhhtMGANQ+L2nTCXZh+pQO3wwy27rjCUes7ghJSJIebRc
IHoms4wMZcxCJ/WwGU/Wp0nkaXEWzs7vYkXwDaegB5Aq49W4ZVkmGsALX3o5IcWV
AINJVLXdzMmfNBvQ2wpgALZQdvjgrR1E634KXR9eqtG2ca048cEYsR0YQ2mCRMFf
25n38i0AfT1aaDVcFVt7kDaZN6jMOd2sqqZNzGo52yp9kT0JRCJdtTsX2xkJL2L6
SVLsG2qnxFagwSdbHuECAwEAAaOB8DCB7TBRBgNVHSMESjBIgBRxKFi7AP0ebr9W
uTvuf2sX8NzQ0KElpCMwITEfMB0GA1UEAwwWZXRjZC1zaWduZXJAMTUzNzUyOTM5
NoIJALRSXd71PwOfMAwGA1UdEwEB/wQCMAAwHQYDVR0lBBYwFAYIKwYBBQUHAwIG
CCsGAQUFBwMBMAsGA1UdDwQEAwIFoDAdBgNVHQ4EFgQUijswGAMONdAqg3FNUMXf
50qG+0IwPwYDVR0RBDgwNocErB8cy4IuaXAtMTcyLTMxLTI4LTIwMy5ldS1jZW50
cmFsLTEuY29tcHV0ZS5pbnRlcm5hbDANBgkqhkiG9w0BAQsFAAOCAgEAlQDM261M
eIc7So0G8OGhzHiWdTKuSovF/31fSFu58cJdnIMB3ECHcXTEFLK7PKBHyXg3AkQX
pbT/x+ILAzX9LIilrPGJp1qYsC3urXrAy8ToEd82HrMOr1Pt/JlnU99XVbJdjNE1
vS0tkOgVJnU7ydl8aVT8wa1F721jgJS7Jly/b/YLv2sdM6mqeynPEQ91p3PpmQLS
IqTGfFA53HfALa48AiQgAr2bhyApNNiKfpMMfktfOhfnjWavQ+sBvqrz9V0CYCLD
Xy0GD1nIWnJ0jBp4iSClrvqtuJsLrOTYXNFhV8ZxrUoQhhtWdcVwvf0xFfOSU7lA
mNtKZ0YIIFmEnMR0Je+Wtrk7/ZVYbMpAxc1ufAOdzUr7ADuExcyMd1YNNMjrfU7h
+hWJSTKsxHl4WnQ3gPEpoLGG8haN7pl7BzA3s2x9WufiRqjPQ0xlRoQdQsmTN7d6
9EXzQaED/WlvKfwhsT8QCEw1AG4GjSpdq6YAzBX8HnaIwEQZ0cuCTwuaqbdfZchB
XxhEpnqpNV9KpNiBZs2sNNGasImza9HpglCeNoiXQsXgS3hDT7Z3LTCyHUyDrg3o
WRKsovMY7aqRJ4dmAdX/5WwntiU8uDRquuvOEWNnATssUhJ5rhFv+bjQxg78TDxy
A5O6sqw9kWC2Tehm5J5hQtVwaSSskZgzYWM=
-----END CERTIFICATE-----
